target datalayout = "e-m:e-p270:32:32-p271:32:32-p272:64:64-i64:64-i128:128-f80:128-n8:16:32:64-S128"
target triple = "x86_64-pc-linux-gnu"

@hf_cigi3_3_symbol_surface_definition_surface_id = internal global i32 0, align 4
@hf_cigi3_3_symbol_surface_definition_surface_state = internal global i32 0, align 4
@hf_cigi3_3_symbol_surface_definition_attach_type = internal global i32 0, align 4
@hf_cigi3_3_symbol_surface_definition_billboard = internal global i32 0, align 4
@hf_cigi3_3_symbol_surface_definition_perspective_growth_enable = internal global i32 0, align 4
@hf_cigi3_3_symbol_surface_definition_entity_view_id = internal global i32 0, align 4
@hf_cigi3_3_symbol_surface_definition_xoff_left = internal global i32 0, align 4
@hf_cigi3_3_symbol_surface_definition_yoff_right = internal global i32 0, align 4
@hf_cigi3_3_symbol_surface_definition_zoff_top = internal global i32 0, align 4
@hf_cigi3_3_symbol_surface_definition_yaw_bottom = internal global i32 0, align 4
@hf_cigi3_3_symbol_surface_definition_pitch = internal global i32 0, align 4
@hf_cigi3_3_symbol_surface_definition_roll = internal global i32 0, align 4
@hf_cigi3_3_symbol_surface_definition_width = internal global i32 0, align 4
@hf_cigi3_3_symbol_surface_definition_height = internal global i32 0, align 4
@hf_cigi3_3_symbol_surface_definition_min_u = internal global i32 0, align 4
@hf_cigi3_3_symbol_surface_definition_max_u = internal global i32 0, align 4
@hf_cigi3_3_symbol_surface_definition_min_v = internal global i32 0, align 4
@hf_cigi3_3_symbol_surface_definition_max_v = internal global i32 0, align 4
@cigi_byte_order = internal global i32 0, align 4

; Function Attrs: null_pointer_is_valid sspstrong uwtable
define internal i32 @cigi4_add_symbol_surface_definition(ptr noundef %0, ptr noundef %1, ptr noundef %2, ptr noundef %3) #0 {
  %5 = alloca ptr, align 8
  %6 = alloca ptr, align 8
  %7 = alloca ptr, align 8
  %8 = alloca ptr, align 8
  %9 = alloca i32, align 4
  store ptr %0, ptr %5, align 8
  store ptr %1, ptr %6, align 8
  store ptr %2, ptr %7, align 8
  store ptr %3, ptr %8, align 8
  call void @llvm.lifetime.start.p0(i64 4, ptr %9) #5
  store i32 0, ptr %9, align 4
  %10 = load ptr, ptr %7, align 8
  %11 = load i32, ptr @hf_cigi3_3_symbol_surface_definition_surface_id, align 4
  %12 = load ptr, ptr %5, align 8
  %13 = load i32, ptr %9, align 4
  %14 = load i32, ptr @cigi_byte_order, align 4
  %15 = call ptr @proto_tree_add_item(ptr noundef %10, i32 noundef %11, ptr noundef %12, i32 noundef %13, i32 noundef 2, i32 noundef %14)
  %16 = load i32, ptr %9, align 4
  %17 = add i32 %16, 2
  store i32 %17, ptr %9, align 4
  %18 = load ptr, ptr %7, align 8
  %19 = load i32, ptr @hf_cigi3_3_symbol_surface_definition_entity_view_id, align 4
  %20 = load ptr, ptr %5, align 8
  %21 = load i32, ptr %9, align 4
  %22 = load i32, ptr @cigi_byte_order, align 4
  %23 = call ptr @proto_tree_add_item(ptr noundef %18, i32 noundef %19, ptr noundef %20, i32 noundef %21, i32 noundef 2, i32 noundef %22)
  %24 = load i32, ptr %9, align 4
  %25 = add i32 %24, 2
  store i32 %25, ptr %9, align 4
  %26 = load ptr, ptr %7, align 8
  %27 = load i32, ptr @hf_cigi3_3_symbol_surface_definition_surface_state, align 4
  %28 = load ptr, ptr %5, align 8
  %29 = load i32, ptr %9, align 4
  %30 = load i32, ptr @cigi_byte_order, align 4
  %31 = call ptr @proto_tree_add_item(ptr noundef %26, i32 noundef %27, ptr noundef %28, i32 noundef %29, i32 noundef 1, i32 noundef %30)
  %32 = load ptr, ptr %7, align 8
  %33 = load i32, ptr @hf_cigi3_3_symbol_surface_definition_attach_type, align 4
  %34 = load ptr, ptr %5, align 8
  %35 = load i32, ptr %9, align 4
  %36 = load i32, ptr @cigi_byte_order, align 4
  %37 = call ptr @proto_tree_add_item(ptr noundef %32, i32 noundef %33, ptr noundef %34, i32 noundef %35, i32 noundef 1, i32 noundef %36)
  %38 = load ptr, ptr %7, align 8
  %39 = load i32, ptr @hf_cigi3_3_symbol_surface_definition_billboard, align 4
  %40 = load ptr, ptr %5, align 8
  %41 = load i32, ptr %9, align 4
  %42 = load i32, ptr @cigi_byte_order, align 4
  %43 = call ptr @proto_tree_add_item(ptr noundef %38, i32 noundef %39, ptr noundef %40, i32 noundef %41, i32 noundef 1, i32 noundef %42)
  %44 = load ptr, ptr %7, align 8
  %45 = load i32, ptr @hf_cigi3_3_symbol_surface_definition_perspective_growth_enable, align 4
  %46 = load ptr, ptr %5, align 8
  %47 = load i32, ptr %9, align 4
  %48 = load i32, ptr @cigi_byte_order, align 4
  %49 = call ptr @proto_tree_add_item(ptr noundef %44, i32 noundef %45, ptr noundef %46, i32 noundef %47, i32 noundef 1, i32 noundef %48)
  %50 = load i32, ptr %9, align 4
  %51 = add i32 %50, 4
  store i32 %51, ptr %9, align 4
  %52 = load ptr, ptr %7, align 8
  %53 = load i32, ptr @hf_cigi3_3_symbol_surface_definition_xoff_left, align 4
  %54 = load ptr, ptr %5, align 8
  %55 = load i32, ptr %9, align 4
  %56 = load i32, ptr @cigi_byte_order, align 4
  %57 = call ptr @proto_tree_add_item(ptr noundef %52, i32 noundef %53, ptr noundef %54, i32 noundef %55, i32 noundef 4, i32 noundef %56)
  %58 = load i32, ptr %9, align 4
  %59 = add i32 %58, 4
  store i32 %59, ptr %9, align 4
  %60 = load ptr, ptr %7, align 8
  %61 = load i32, ptr @hf_cigi3_3_symbol_surface_definition_yoff_right, align 4
  %62 = load ptr, ptr %5, align 8
  %63 = load i32, ptr %9, align 4
  %64 = load i32, ptr @cigi_byte_order, align 4
  %65 = call ptr @proto_tree_add_item(ptr noundef %60, i32 noundef %61, ptr noundef %62, i32 noundef %63, i32 noundef 4, i32 noundef %64)
  %66 = load i32, ptr %9, align 4
  %67 = add i32 %66, 4
  store i32 %67, ptr %9, align 4
  %68 = load ptr, ptr %7, align 8
  %69 = load i32, ptr @hf_cigi3_3_symbol_surface_definition_zoff_top, align 4
  %70 = load ptr, ptr %5, align 8
  %71 = load i32, ptr %9, align 4
  %72 = load i32, ptr @cigi_byte_order, align 4
  %73 = call ptr @proto_tree_add_item(ptr noundef %68, i32 noundef %69, ptr noundef %70, i32 noundef %71, i32 noundef 4, i32 noundef %72)
  %74 = load i32, ptr %9, align 4
  %75 = add i32 %74, 4
  store i32 %75, ptr %9, align 4
  %76 = load ptr, ptr %7, align 8
  %77 = load i32, ptr @hf_cigi3_3_symbol_surface_definition_yaw_bottom, align 4
  %78 = load ptr, ptr %5, align 8
  %79 = load i32, ptr %9, align 4
  %80 = load i32, ptr @cigi_byte_order, align 4
  %81 = call ptr @proto_tree_add_item(ptr noundef %76, i32 noundef %77, ptr noundef %78, i32 noundef %79, i32 noundef 4, i32 noundef %80)
  %82 = load i32, ptr %9, align 4
  %83 = add i32 %82, 4
  store i32 %83, ptr %9, align 4
  %84 = load ptr, ptr %7, align 8
  %85 = load i32, ptr @hf_cigi3_3_symbol_surface_definition_pitch, align 4
  %86 = load ptr, ptr %5, align 8
  %87 = load i32, ptr %9, align 4
  %88 = load i32, ptr @cigi_byte_order, align 4
  %89 = call ptr @proto_tree_add_item(ptr noundef %84, i32 noundef %85, ptr noundef %86, i32 noundef %87, i32 noundef 4, i32 noundef %88)
  %90 = load i32, ptr %9, align 4
  %91 = add i32 %90, 4
  store i32 %91, ptr %9, align 4
  %92 = load ptr, ptr %7, align 8
  %93 = load i32, ptr @hf_cigi3_3_symbol_surface_definition_roll, align 4
  %94 = load ptr, ptr %5, align 8
  %95 = load i32, ptr %9, align 4
  %96 = load i32, ptr @cigi_byte_order, align 4
  %97 = call ptr @proto_tree_add_item(ptr noundef %92, i32 noundef %93, ptr noundef %94, i32 noundef %95, i32 noundef 4, i32 noundef %96)
  %98 = load i32, ptr %9, align 4
  %99 = add i32 %98, 4
  store i32 %99, ptr %9, align 4
  %100 = load ptr, ptr %7, align 8
  %101 = load i32, ptr @hf_cigi3_3_symbol_surface_definition_width, align 4
  %102 = load ptr, ptr %5, align 8
  %103 = load i32, ptr %9, align 4
  %104 = load i32, ptr @cigi_byte_order, align 4
  %105 = call ptr @proto_tree_add_item(ptr noundef %100, i32 noundef %101, ptr noundef %102, i32 noundef %103, i32 noundef 4, i32 noundef %104)
  %106 = load i32, ptr %9, align 4
  %107 = add i32 %106, 4
  store i32 %107, ptr %9, align 4
  %108 = load ptr, ptr %7, align 8
  %109 = load i32, ptr @hf_cigi3_3_symbol_surface_definition_height, align 4
  %110 = load ptr, ptr %5, align 8
  %111 = load i32, ptr %9, align 4
  %112 = load i32, ptr @cigi_byte_order, align 4
  %113 = call ptr @proto_tree_add_item(ptr noundef %108, i32 noundef %109, ptr noundef %110, i32 noundef %111, i32 noundef 4, i32 noundef %112)
  %114 = load i32, ptr %9, align 4
  %115 = add i32 %114, 4
  store i32 %115, ptr %9, align 4
  %116 = load ptr, ptr %7, align 8
  %117 = load i32, ptr @hf_cigi3_3_symbol_surface_definition_min_u, align 4
  %118 = load ptr, ptr %5, align 8
  %119 = load i32, ptr %9, align 4
  %120 = load i32, ptr @cigi_byte_order, align 4
  %121 = call ptr @proto_tree_add_item(ptr noundef %116, i32 noundef %117, ptr noundef %118, i32 noundef %119, i32 noundef 4, i32 noundef %120)
  %122 = load i32, ptr %9, align 4
  %123 = add i32 %122, 4
  store i32 %123, ptr %9, align 4
  %124 = load ptr, ptr %7, align 8
  %125 = load i32, ptr @hf_cigi3_3_symbol_surface_definition_max_u, align 4
  %126 = load ptr, ptr %5, align 8
  %127 = load i32, ptr %9, align 4
  %128 = load i32, ptr @cigi_byte_order, align 4
  %129 = call ptr @proto_tree_add_item(ptr noundef %124, i32 noundef %125, ptr noundef %126, i32 noundef %127, i32 noundef 4, i32 noundef %128)
  %130 = load i32, ptr %9, align 4
  %131 = add i32 %130, 4
  store i32 %131, ptr %9, align 4
  %132 = load ptr, ptr %7, align 8
  %133 = load i32, ptr @hf_cigi3_3_symbol_surface_definition_min_v, align 4
  %134 = load ptr, ptr %5, align 8
  %135 = load i32, ptr %9, align 4
  %136 = load i32, ptr @cigi_byte_order, align 4
  %137 = call ptr @proto_tree_add_item(ptr noundef %132, i32 noundef %133, ptr noundef %134, i32 noundef %135, i32 noundef 4, i32 noundef %136)
  %138 = load i32, ptr %9, align 4
  %139 = add i32 %138, 4
  store i32 %139, ptr %9, align 4
  %140 = load ptr, ptr %7, align 8
  %141 = load i32, ptr @hf_cigi3_3_symbol_surface_definition_max_v, align 4
  %142 = load ptr, ptr %5, align 8
  %143 = load i32, ptr %9, align 4
  %144 = load i32, ptr @cigi_byte_order, align 4
  %145 = call ptr @proto_tree_add_item(ptr noundef %140, i32 noundef %141, ptr noundef %142, i32 noundef %143, i32 noundef 4, i32 noundef %144)
  %146 = load i32, ptr %9, align 4
  %147 = add i32 %146, 8
  store i32 %147, ptr %9, align 4
  %148 = load i32, ptr %9, align 4
  call void @llvm.lifetime.end.p0(i64 4, ptr %9) #5
  ret i32 %148
}