; Function Attrs: null_pointer_is_valid sspstrong uwtable
define internal noundef i32 @cigi4_add_symbol_surface_definition(ptr noundef %0, ptr readnone captures(none) %1, ptr noundef %2, ptr readnone captures(none) %3) #0 {
  %5 = load i32, ptr @hf_cigi3_3_symbol_surface_definition_surface_id, align 4
  %.b85 = load i1, ptr @cigi_byte_order, align 4
  %6 = select i1 %.b85, i32 -2147483648, i32 0
  %7 = tail call ptr @proto_tree_add_item(ptr noundef %2, i32 noundef %5, ptr noundef %0, i32 noundef 0, i32 noundef 2, i32 noundef %6)
  %8 = load i32, ptr @hf_cigi3_3_symbol_surface_definition_entity_view_id, align 4
  %.b84 = load i1, ptr @cigi_byte_order, align 4
  %9 = select i1 %.b84, i32 -2147483648, i32 0
  %10 = tail call ptr @proto_tree_add_item(ptr noundef %2, i32 noundef %8, ptr noundef %0, i32 noundef 2, i32 noundef 2, i32 noundef %9)
  %11 = load i32, ptr @hf_cigi3_3_symbol_surface_definition_surface_state, align 4
  %.b83 = load i1, ptr @cigi_byte_order, align 4
  %12 = select i1 %.b83, i32 -2147483648, i32 0
  %13 = tail call ptr @proto_tree_add_item(ptr noundef %2, i32 noundef %11, ptr noundef %0, i32 noundef 4, i32 noundef 1, i32 noundef %12)
  %14 = load i32, ptr @hf_cigi3_3_symbol_surface_definition_attach_type, align 4
  %.b82 = load i1, ptr @cigi_byte_order, align 4
  %15 = select i1 %.b82, i32 -2147483648, i32 0
  %16 = tail call ptr @proto_tree_add_item(ptr noundef %2, i32 noundef %14, ptr noundef %0, i32 noundef 4, i32 noundef 1, i32 noundef %15)
  %17 = load i32, ptr @hf_cigi3_3_symbol_surface_definition_billboard, align 4
  %.b81 = load i1, ptr @cigi_byte_order, align 4
  %18 = select i1 %.b81, i32 -2147483648, i32 0
  %19 = tail call ptr @proto_tree_add_item(ptr noundef %2, i32 noundef %17, ptr noundef %0, i32 noundef 4, i32 noundef 1, i32 noundef %18)
  %20 = load i32, ptr @hf_cigi3_3_symbol_surface_definition_perspective_growth_enable, align 4
  %.b80 = load i1, ptr @cigi_byte_order, align 4
  %21 = select i1 %.b80, i32 -2147483648, i32 0
  %22 = tail call ptr @proto_tree_add_item(ptr noundef %2, i32 noundef %20, ptr noundef %0, i32 noundef 4, i32 noundef 1, i32 noundef %21)
  %23 = load i32, ptr @hf_cigi3_3_symbol_surface_definition_xoff_left, align 4
  %.b79 = load i1, ptr @cigi_byte_order, align 4
  %24 = select i1 %.b79, i32 -2147483648, i32 0
  %25 = tail call ptr @proto_tree_add_item(ptr noundef %2, i32 noundef %23, ptr noundef %0, i32 noundef 8, i32 noundef 4, i32 noundef %24)
  %26 = load i32, ptr @hf_cigi3_3_symbol_surface_definition_yoff_right, align 4
  %.b78 = load i1, ptr @cigi_byte_order, align 4
  %27 = select i1 %.b78, i32 -2147483648, i32 0
  %28 = tail call ptr @proto_tree_add_item(ptr noundef %2, i32 noundef %26, ptr noundef %0, i32 noundef 12, i32 noundef 4, i32 noundef %27)
  %29 = load i32, ptr @hf_cigi3_3_symbol_surface_definition_zoff_top, align 4
  %.b77 = load i1, ptr @cigi_byte_order, align 4
  %30 = select i1 %.b77, i32 -2147483648, i32 0
  %31 = tail call ptr @proto_tree_add_item(ptr noundef %2, i32 noundef %29, ptr noundef %0, i32 noundef 16, i32 noundef 4, i32 noundef %30)
  %32 = load i32, ptr @hf_cigi3_3_symbol_surface_definition_yaw_bottom, align 4
  %.b76 = load i1, ptr @cigi_byte_order, align 4
  %33 = select i1 %.b76, i32 -2147483648, i32 0
  %34 = tail call ptr @proto_tree_add_item(ptr noundef %2, i32 noundef %32, ptr noundef %0, i32 noundef 20, i32 noundef 4, i32 noundef %33)
  %35 = load i32, ptr @hf_cigi3_3_symbol_surface_definition_pitch, align 4
  %.b75 = load i1, ptr @cigi_byte_order, align 4
  %36 = select i1 %.b75, i32 -2147483648, i32 0
  %37 = tail call ptr @proto_tree_add_item(ptr noundef %2, i32 noundef %35, ptr noundef %0, i32 noundef 24, i32 noundef 4, i32 noundef %36)
  %38 = load i32, ptr @hf_cigi3_3_symbol_surface_definition_roll, align 4
  %.b74 = load i1, ptr @cigi_byte_order, align 4
  %39 = select i1 %.b74, i32 -2147483648, i32 0
  %40 = tail call ptr @proto_tree_add_item(ptr noundef %2, i32 noundef %38, ptr noundef %0, i32 noundef 28, i32 noundef 4, i32 noundef %39)
  %41 = load i32, ptr @hf_cigi3_3_symbol_surface_definition_width, align 4
  %.b73 = load i1, ptr @cigi_byte_order, align 4
  %42 = select i1 %.b73, i32 -2147483648, i32 0
  %43 = tail call ptr @proto_tree_add_item(ptr noundef %2, i32 noundef %41, ptr noundef %0, i32 noundef 32, i32 noundef 4, i32 noundef %42)
  %44 = load i32, ptr @hf_cigi3_3_symbol_surface_definition_height, align 4
  %.b72 = load i1, ptr @cigi_byte_order, align 4
  %45 = select i1 %.b72, i32 -2147483648, i32 0
  %46 = tail call ptr @proto_tree_add_item(ptr noundef %2, i32 noundef %44, ptr noundef %0, i32 noundef 36, i32 noundef 4, i32 noundef %45)
  %47 = load i32, ptr @hf_cigi3_3_symbol_surface_definition_min_u, align 4
  %.b71 = load i1, ptr @cigi_byte_order, align 4
  %48 = select i1 %.b71, i32 -2147483648, i32 0
  %49 = tail call ptr @proto_tree_add_item(ptr noundef %2, i32 noundef %47, ptr noundef %0, i32 noundef 40, i32 noundef 4, i32 noundef %48)
  %50 = load i32, ptr @hf_cigi3_3_symbol_surface_definition_max_u, align 4
  %.b70 = load i1, ptr @cigi_byte_order, align 4
  %51 = select i1 %.b70, i32 -2147483648, i32 0
  %52 = tail call ptr @proto_tree_add_item(ptr noundef %2, i32 noundef %50, ptr noundef %0, i32 noundef 44, i32 noundef 4, i32 noundef %51)
  %53 = load i32, ptr @hf_cigi3_3_symbol_surface_definition_min_v, align 4
  %.b69 = load i1, ptr @cigi_byte_order, align 4
  %54 = select i1 %.b69, i32 -2147483648, i32 0
  %55 = tail call ptr @proto_tree_add_item(ptr noundef %2, i32 noundef %53, ptr noundef %0, i32 noundef 48, i32 noundef 4, i32 noundef %54)
  %56 = load i32, ptr @hf_cigi3_3_symbol_surface_definition_max_v, align 4
  %.b = load i1, ptr @cigi_byte_order, align 4
  %57 = select i1 %.b, i32 -2147483648, i32 0
  %58 = tail call ptr @proto_tree_add_item(ptr noundef %2, i32 noundef %56, ptr noundef %0, i32 noundef 52, i32 noundef 4, i32 noundef %57)
  ret i32 60
}